target datalayout = "e-m:e-p270:32:32-p271:32:32-p272:64:64-i64:64-i128:128-f80:128-n8:16:32:64-S128"
target triple = "x86_64-pc-linux-gnu"

@id_next = internal global i64 0, align 8

; Function Attrs: nounwind sspstrong uwtable
define internal i64 @call_next(i64 noundef %0) #0 {
  %2 = alloca i64, align 8
  %3 = alloca ptr, align 8
  store i64 %0, ptr %2, align 8, !tbaa !14
  call void @llvm.lifetime.start.p0(i64 8, ptr %3) #22
  %4 = load i64, ptr %2, align 8, !tbaa !14
  %5 = inttoptr i64 %4 to ptr
  store ptr %5, ptr %3, align 8, !tbaa !11
  %6 = load ptr, ptr %3, align 8, !tbaa !11
  %7 = getelementptr i64, ptr %6, i64 1
  %8 = load i64, ptr %7, align 8, !tbaa !14
  %9 = load i64, ptr @id_next, align 8, !tbaa !14
  %10 = call i64 @rb_funcallv(i64 noundef %8, i64 noundef %9, i32 noundef 0, ptr noundef null)
  %11 = load ptr, ptr %3, align 8, !tbaa !11
  %12 = getelementptr i64, ptr %11, i64 0
  store i64 %10, ptr %12, align 8, !tbaa !14
  call void @llvm.lifetime.end.p0(i64 8, ptr %3) #22
  ret i64 %10
}