; Function Attrs: nounwind sspstrong uwtable
define internal i64 @call_next(i64 noundef %0) #0 {
  %2 = inttoptr i64 %0 to ptr
  %3 = getelementptr i8, ptr %2, i64 8
  %4 = load i64, ptr %3, align 8, !tbaa !7
  %5 = load i64, ptr @id_next, align 8, !tbaa !7
  %6 = tail call i64 @rb_funcallv(i64 noundef %4, i64 noundef %5, i32 noundef 0, ptr noundef null) #14
  store i64 %6, ptr %2, align 8, !tbaa !7
  ret i64 %6
}